target datalayout = "e-m:e-p270:32:32-p271:32:32-p272:64:64-i64:64-i128:128-f80:128-n8:16:32:64-S128"
target triple = "x86_64-pc-linux-gnu"

%struct.tsi_ssl_client_handshaker_options = type { ptr, ptr, ptr, ptr, ptr, i64, ptr, ptr, i8, i32, i32, ptr, %"class.std::shared_ptr" }
%"class.std::shared_ptr" = type { %"class.std::__shared_ptr" }
%"class.std::__shared_ptr" = type { ptr, %"class.std::__shared_count" }
%"class.std::__shared_count" = type { ptr }

; Function Attrs: mustprogress nounwind uwtable
define linkonce_odr void @_ZNSt14__shared_countILN9__gnu_cxx12_Lock_policyE2EEC2Ev(ptr noundef nonnull align 8 dereferenceable(8) %0) unnamed_addr #7 comdat align 2 {
  %2 = alloca ptr, align 8
  store ptr %0, ptr %2, align 8, !tbaa !369
  %3 = load ptr, ptr %2, align 8
  %4 = getelementptr inbounds nuw %"class.std::__shared_count", ptr %3, i32 0, i32 0
  store ptr null, ptr %4, align 8, !tbaa !371
  ret void
}

; Function Attrs: mustprogress nounwind uwtable
define linkonce_odr void @_ZNSt12__shared_ptrIN9grpc_core12experimental11CrlProviderELN9__gnu_cxx12_Lock_policyE2EEC2Ev(ptr noundef nonnull align 8 dereferenceable(16) %0) unnamed_addr #7 comdat align 2 {
  %2 = alloca ptr, align 8
  store ptr %0, ptr %2, align 8, !tbaa !173
  %3 = load ptr, ptr %2, align 8
  %4 = getelementptr inbounds nuw %"class.std::__shared_ptr", ptr %3, i32 0, i32 0
  store ptr null, ptr %4, align 8, !tbaa !175
  %5 = getelementptr inbounds nuw %"class.std::__shared_ptr", ptr %3, i32 0, i32 1
  call void @_ZNSt14__shared_countILN9__gnu_cxx12_Lock_policyE2EEC2Ev(ptr noundef nonnull align 8 dereferenceable(8) %5) #3
  ret void
}

; Function Attrs: mustprogress nounwind uwtable
define linkonce_odr void @_ZNSt10shared_ptrIN9grpc_core12experimental11CrlProviderEEC2Ev(ptr noundef nonnull align 8 dereferenceable(16) %0) unnamed_addr #7 comdat align 2 {
  %2 = alloca ptr, align 8
  store ptr %0, ptr %2, align 8, !tbaa !171
  %3 = load ptr, ptr %2, align 8
  call void @_ZNSt12__shared_ptrIN9grpc_core12experimental11CrlProviderELN9__gnu_cxx12_Lock_policyE2EEC2Ev(ptr noundef nonnull align 8 dereferenceable(16) %3) #3
  ret void
}

; Function Attrs: mustprogress nounwind uwtable
define linkonce_odr void @_ZN33tsi_ssl_client_handshaker_optionsC2Ev(ptr noundef nonnull align 8 dereferenceable(104) %0) unnamed_addr #7 comdat align 2 {
  %2 = alloca ptr, align 8
  store ptr %0, ptr %2, align 8, !tbaa !129
  %3 = load ptr, ptr %2, align 8
  %4 = getelementptr inbounds nuw %struct.tsi_ssl_client_handshaker_options, ptr %3, i32 0, i32 0
  store ptr null, ptr %4, align 8, !tbaa !117
  %5 = getelementptr inbounds nuw %struct.tsi_ssl_client_handshaker_options, ptr %3, i32 0, i32 1
  store ptr null, ptr %5, align 8, !tbaa !125
  %6 = getelementptr inbounds nuw %struct.tsi_ssl_client_handshaker_options, ptr %3, i32 0, i32 2
  store ptr null, ptr %6, align 8, !tbaa !131
  %7 = getelementptr inbounds nuw %struct.tsi_ssl_client_handshaker_options, ptr %3, i32 0, i32 3
  store ptr null, ptr %7, align 8, !tbaa !126
  %8 = getelementptr inbounds nuw %struct.tsi_ssl_client_handshaker_options, ptr %3, i32 0, i32 4
  store ptr null, ptr %8, align 8, !tbaa !127
  %9 = getelementptr inbounds nuw %struct.tsi_ssl_client_handshaker_options, ptr %3, i32 0, i32 5
  store i64 0, ptr %9, align 8, !tbaa !128
  %10 = getelementptr inbounds nuw %struct.tsi_ssl_client_handshaker_options, ptr %3, i32 0, i32 6
  store ptr null, ptr %10, align 8, !tbaa !132
  %11 = getelementptr inbounds nuw %struct.tsi_ssl_client_handshaker_options, ptr %3, i32 0, i32 7
  store ptr null, ptr %11, align 8, !tbaa !133
  %12 = getelementptr inbounds nuw %struct.tsi_ssl_client_handshaker_options, ptr %3, i32 0, i32 8
  store i8 0, ptr %12, align 8, !tbaa !134
  %13 = getelementptr inbounds nuw %struct.tsi_ssl_client_handshaker_options, ptr %3, i32 0, i32 9
  store i32 0, ptr %13, align 4, !tbaa !135
  %14 = getelementptr inbounds nuw %struct.tsi_ssl_client_handshaker_options, ptr %3, i32 0, i32 10
  store i32 1, ptr %14, align 8, !tbaa !136
  %15 = getelementptr inbounds nuw %struct.tsi_ssl_client_handshaker_options, ptr %3, i32 0, i32 11
  store ptr null, ptr %15, align 8, !tbaa !137
  %16 = getelementptr inbounds nuw %struct.tsi_ssl_client_handshaker_options, ptr %3, i32 0, i32 12
  call void @_ZNSt10shared_ptrIN9grpc_core12experimental11CrlProviderEEC2Ev(ptr noundef nonnull align 8 dereferenceable(16) %16) #3
  ret void
}

; Function Attrs: mustprogress uwtable
define noundef i32 @_Z40tsi_create_ssl_client_handshaker_factoryPK25tsi_ssl_pem_key_cert_pairPKcS3_PS3_tPP33tsi_ssl_client_handshaker_factory(ptr noundef %0, ptr noundef %1, ptr noundef %2, ptr noundef %3, i16 noundef zeroext %4, ptr noundef %5) #4 personality ptr @__gxx_personality_v0 {
  %7 = alloca ptr, align 8
  %8 = alloca ptr, align 8
  %9 = alloca ptr, align 8
  %10 = alloca ptr, align 8
  %11 = alloca i16, align 2
  %12 = alloca ptr, align 8
  %13 = alloca %struct.tsi_ssl_client_handshaker_options, align 8
  %14 = alloca ptr, align 8
  %15 = alloca i32, align 4
  store ptr %0, ptr %7, align 8, !tbaa !109
  store ptr %1, ptr %8, align 8, !tbaa !3
  store ptr %2, ptr %9, align 8, !tbaa !3
  store ptr %3, ptr %10, align 8, !tbaa !111
  store i16 %4, ptr %11, align 2, !tbaa !113
  store ptr %5, ptr %12, align 8, !tbaa !115
  call void @llvm.lifetime.start.p0(i64 104, ptr %13) #3
  call void @_ZN33tsi_ssl_client_handshaker_optionsC2Ev(ptr noundef nonnull align 8 dereferenceable(104) %13)
  %16 = load ptr, ptr %7, align 8, !tbaa !109
  %17 = getelementptr inbounds nuw %struct.tsi_ssl_client_handshaker_options, ptr %13, i32 0, i32 0
  store ptr %16, ptr %17, align 8, !tbaa !117
  %18 = load ptr, ptr %8, align 8, !tbaa !3
  %19 = getelementptr inbounds nuw %struct.tsi_ssl_client_handshaker_options, ptr %13, i32 0, i32 1
  store ptr %18, ptr %19, align 8, !tbaa !125
  %20 = load ptr, ptr %9, align 8, !tbaa !3
  %21 = getelementptr inbounds nuw %struct.tsi_ssl_client_handshaker_options, ptr %13, i32 0, i32 3
  store ptr %20, ptr %21, align 8, !tbaa !126
  %22 = load ptr, ptr %10, align 8, !tbaa !111
  %23 = getelementptr inbounds nuw %struct.tsi_ssl_client_handshaker_options, ptr %13, i32 0, i32 4
  store ptr %22, ptr %23, align 8, !tbaa !127
  %24 = load i16, ptr %11, align 2, !tbaa !113
  %25 = zext i16 %24 to i64
  %26 = getelementptr inbounds nuw %struct.tsi_ssl_client_handshaker_options, ptr %13, i32 0, i32 5
  store i64 %25, ptr %26, align 8, !tbaa !128
  %27 = load ptr, ptr %12, align 8, !tbaa !115
  %28 = invoke noundef i32 @_Z53tsi_create_ssl_client_handshaker_factory_with_optionsPK33tsi_ssl_client_handshaker_optionsPP33tsi_ssl_client_handshaker_factory(ptr noundef %13, ptr noundef %27)
          to label %29 unwind label %30

29:                                               ; preds = %6
  call void @_ZN33tsi_ssl_client_handshaker_optionsD2Ev(ptr noundef nonnull align 8 dereferenceable(104) %13) #3
  call void @llvm.lifetime.end.p0(i64 104, ptr %13) #3
  ret i32 %28

30:                                               ; preds = %6
  %31 = landingpad { ptr, i32 }
          cleanup
  %32 = extractvalue { ptr, i32 } %31, 0
  store ptr %32, ptr %14, align 8
  %33 = extractvalue { ptr, i32 } %31, 1
  store i32 %33, ptr %15, align 4
  call void @_ZN33tsi_ssl_client_handshaker_optionsD2Ev(ptr noundef nonnull align 8 dereferenceable(104) %13) #3
  call void @llvm.lifetime.end.p0(i64 104, ptr %13) #3
  br label %34

34:                                               ; preds = %30
  %35 = load ptr, ptr %14, align 8
  %36 = load i32, ptr %15, align 4
  %37 = insertvalue { ptr, i32 } poison, ptr %35, 0
  %38 = insertvalue { ptr, i32 } %37, i32 %36, 1
  resume { ptr, i32 } %38
}