; Function Attrs: mustprogress uwtable
define noundef range(i32 0, 13) i32 @_Z40tsi_create_ssl_client_handshaker_factoryPK25tsi_ssl_pem_key_cert_pairPKcS3_PS3_tPP33tsi_ssl_client_handshaker_factory(ptr noundef %0, ptr noundef %1, ptr noundef %2, ptr noundef %3, i16 noundef zeroext %4, ptr noundef %5) local_unnamed_addr #3 personality ptr @__gxx_personality_v0 {
  %7 = alloca %struct.tsi_ssl_client_handshaker_options, align 8
  call void @llvm.lifetime.start.p0(i64 104, ptr nonnull %7) #32
  %8 = getelementptr inbounds nuw i8, ptr %7, i64 68
  store i32 0, ptr %8, align 4, !tbaa !86
  %9 = getelementptr inbounds nuw i8, ptr %7, i64 72
  %10 = getelementptr inbounds nuw i8, ptr %7, i64 16
  call void @llvm.memset.p0.i64(ptr noundef nonnull align 8 dereferenceable(49) %10, i8 0, i64 49, i1 false)
  store i32 1, ptr %9, align 8, !tbaa !98
  %11 = getelementptr inbounds nuw i8, ptr %7, i64 80
  call void @llvm.memset.p0.i64(ptr noundef nonnull align 8 dereferenceable(24) %11, i8 0, i64 24, i1 false)
  store ptr %0, ptr %7, align 8, !tbaa !99
  %12 = getelementptr inbounds nuw i8, ptr %7, i64 8
  store ptr %1, ptr %12, align 8, !tbaa !100
  %13 = getelementptr inbounds nuw i8, ptr %7, i64 24
  store ptr %2, ptr %13, align 8, !tbaa !101
  %14 = getelementptr inbounds nuw i8, ptr %7, i64 32
  store ptr %3, ptr %14, align 8, !tbaa !102
  %15 = zext i16 %4 to i64
  %16 = getelementptr inbounds nuw i8, ptr %7, i64 40
  store i64 %15, ptr %16, align 8, !tbaa !103
  %17 = invoke noundef i32 @_Z53tsi_create_ssl_client_handshaker_factory_with_optionsPK33tsi_ssl_client_handshaker_optionsPP33tsi_ssl_client_handshaker_factory(ptr noundef nonnull %7, ptr noundef %5)
          to label %_ZN33tsi_ssl_client_handshaker_optionsD2Ev.exit unwind label %18

_ZN33tsi_ssl_client_handshaker_optionsD2Ev.exit:  ; preds = %6
  call void @llvm.lifetime.end.p0(i64 104, ptr nonnull %7) #32
  ret i32 %17

18:                                               ; preds = %6
  %19 = landingpad { ptr, i32 }
          cleanup
  call void @_ZN33tsi_ssl_client_handshaker_optionsD2Ev(ptr noundef nonnull align 8 dereferenceable(104) %7) #32
  call void @llvm.lifetime.end.p0(i64 104, ptr nonnull %7) #32
  resume { ptr, i32 } %19
}